target datalayout = "e-m:e-p270:32:32-p271:32:32-p272:64:64-i64:64-i128:128-f80:128-n8:16:32:64-S128"
target triple = "x86_64-pc-linux-gnu"

%union.pthread_mutex_t = type { %struct.__pthread_mutex_s }
%struct.__pthread_mutex_s = type { i32, i32, i32, i32, i32, i16, i16, %struct.__pthread_internal_list }
%struct.__pthread_internal_list = type { ptr, ptr }
%struct.wolfSSL_RefWithMutex = type { %union.pthread_mutex_t, i32 }
%struct.WOLFSSL_CERT_MANAGER = type { [11 x ptr], ptr, ptr, ptr, ptr, ptr, ptr, ptr, ptr, ptr, ptr, ptr, ptr, %union.pthread_mutex_t, i8, i16, i16, %struct.wolfSSL_RefWithMutex }
%struct.Signer = type { i32, i32, i16, i8, i8, ptr, i32, ptr, ptr, ptr, [20 x i8], [20 x i8], i8, ptr }

; Function Attrs: nounwind uwtable
define ptr @GetCAByName(ptr noundef %0, ptr noundef %1) #0 {
  %3 = alloca ptr, align 8
  %4 = alloca ptr, align 8
  %5 = alloca ptr, align 8
  %6 = alloca ptr, align 8
  %7 = alloca ptr, align 8
  %8 = alloca ptr, align 8
  %9 = alloca i32, align 4
  %10 = alloca i32, align 4
  store ptr %0, ptr %4, align 8, !tbaa !3
  store ptr %1, ptr %5, align 8, !tbaa !21
  call void @llvm.lifetime.start.p0(i64 8, ptr %6) #9
  %11 = load ptr, ptr %4, align 8, !tbaa !3
  store ptr %11, ptr %6, align 8, !tbaa !9
  call void @llvm.lifetime.start.p0(i64 8, ptr %7) #9
  store ptr null, ptr %7, align 8, !tbaa !201
  call void @llvm.lifetime.start.p0(i64 8, ptr %8) #9
  call void @llvm.lifetime.start.p0(i64 4, ptr %9) #9
  %12 = load ptr, ptr %6, align 8, !tbaa !9
  %13 = icmp eq ptr %12, null
  br i1 %13, label %14, label %15

14:                                               ; preds = %2
  store ptr null, ptr %3, align 8
  store i32 1, ptr %10, align 4
  br label %68

15:                                               ; preds = %2
  %16 = load ptr, ptr %6, align 8, !tbaa !9
  %17 = getelementptr inbounds nuw %struct.WOLFSSL_CERT_MANAGER, ptr %16, i32 0, i32 13
  %18 = call i32 @wc_LockMutex(ptr noundef %17)
  %19 = icmp ne i32 %18, 0
  br i1 %19, label %20, label %22

20:                                               ; preds = %15
  %21 = load ptr, ptr %7, align 8, !tbaa !201
  store ptr %21, ptr %3, align 8
  store i32 1, ptr %10, align 4
  br label %68

22:                                               ; preds = %15
  store i32 0, ptr %9, align 4, !tbaa !7
  br label %23

23:                                               ; preds = %60, %22
  %24 = load i32, ptr %9, align 4, !tbaa !7
  %25 = icmp ult i32 %24, 11
  br i1 %25, label %26, label %29

26:                                               ; preds = %23
  %27 = load ptr, ptr %7, align 8, !tbaa !201
  %28 = icmp eq ptr %27, null
  br label %29

29:                                               ; preds = %26, %23
  %30 = phi i1 [ false, %23 ], [ %28, %26 ]
  br i1 %30, label %31, label %63

31:                                               ; preds = %29
  %32 = load ptr, ptr %6, align 8, !tbaa !9
  %33 = getelementptr inbounds nuw %struct.WOLFSSL_CERT_MANAGER, ptr %32, i32 0, i32 0
  %34 = load i32, ptr %9, align 4, !tbaa !7
  %35 = zext i32 %34 to i64
  %36 = getelementptr inbounds nuw [11 x ptr], ptr %33, i64 0, i64 %35
  %37 = load ptr, ptr %36, align 8, !tbaa !201
  store ptr %37, ptr %8, align 8, !tbaa !201
  br label %38

38:                                               ; preds = %55, %31
  %39 = load ptr, ptr %8, align 8, !tbaa !201
  %40 = icmp ne ptr %39, null
  br i1 %40, label %41, label %44

41:                                               ; preds = %38
  %42 = load ptr, ptr %7, align 8, !tbaa !201
  %43 = icmp eq ptr %42, null
  br label %44

44:                                               ; preds = %41, %38
  %45 = phi i1 [ false, %38 ], [ %43, %41 ]
  br i1 %45, label %46, label %59

46:                                               ; preds = %44
  %47 = load ptr, ptr %5, align 8, !tbaa !21
  %48 = load ptr, ptr %8, align 8, !tbaa !201
  %49 = getelementptr inbounds nuw %struct.Signer, ptr %48, i32 0, i32 10
  %50 = getelementptr inbounds [20 x i8], ptr %49, i64 0, i64 0
  %51 = call i32 @memcmp(ptr noundef %47, ptr noundef %50, i64 noundef 20) #10
  %52 = icmp eq i32 %51, 0
  br i1 %52, label %53, label %55

53:                                               ; preds = %46
  %54 = load ptr, ptr %8, align 8, !tbaa !201
  store ptr %54, ptr %7, align 8, !tbaa !201
  br label %55

55:                                               ; preds = %53, %46
  %56 = load ptr, ptr %8, align 8, !tbaa !201
  %57 = getelementptr inbounds nuw %struct.Signer, ptr %56, i32 0, i32 13
  %58 = load ptr, ptr %57, align 8, !tbaa !203
  store ptr %58, ptr %8, align 8, !tbaa !201
  br label %38, !llvm.loop !208

59:                                               ; preds = %44
  br label %60

60:                                               ; preds = %59
  %61 = load i32, ptr %9, align 4, !tbaa !7
  %62 = add i32 %61, 1
  store i32 %62, ptr %9, align 4, !tbaa !7
  br label %23, !llvm.loop !209

63:                                               ; preds = %29
  %64 = load ptr, ptr %6, align 8, !tbaa !9
  %65 = getelementptr inbounds nuw %struct.WOLFSSL_CERT_MANAGER, ptr %64, i32 0, i32 13
  %66 = call i32 @wc_UnLockMutex(ptr noundef %65)
  %67 = load ptr, ptr %7, align 8, !tbaa !201
  store ptr %67, ptr %3, align 8
  store i32 1, ptr %10, align 4
  br label %68

68:                                               ; preds = %63, %20, %14
  call void @llvm.lifetime.end.p0(i64 4, ptr %9) #9
  call void @llvm.lifetime.end.p0(i64 8, ptr %8) #9
  call void @llvm.lifetime.end.p0(i64 8, ptr %7) #9
  call void @llvm.lifetime.end.p0(i64 8, ptr %6) #9
  %69 = load ptr, ptr %3, align 8
  ret ptr %69
}