; Function Attrs: nounwind uwtable
define ptr @GetCAByName(ptr noundef %0, ptr noundef readonly captures(none) %1) local_unnamed_addr #0 {
  %3 = icmp eq ptr %0, null
  br i1 %3, label %19, label %4

4:                                                ; preds = %2
  %5 = getelementptr inbounds nuw i8, ptr %0, i64 184
  %6 = tail call i32 @wc_LockMutex(ptr noundef nonnull %5) #22
  %.not = icmp eq i32 %6, 0
  br i1 %.not, label %.preheader, label %19

.preheader:                                       ; preds = %4, %._crit_edge
  %indvars.iv = phi i64 [ %indvars.iv.next, %._crit_edge ], [ 0, %4 ]
  %7 = getelementptr inbounds nuw [11 x ptr], ptr %0, i64 0, i64 %indvars.iv
  %.01721 = load ptr, ptr %7, align 8, !tbaa !177
  %.not24 = icmp eq ptr %.01721, null
  br i1 %.not24, label %._crit_edge, label %.lr.ph

.lr.ph:                                           ; preds = %.preheader, %.lr.ph
  %.01722 = phi ptr [ %.017, %.lr.ph ], [ %.01721, %.preheader ]
  %8 = getelementptr inbounds nuw i8, ptr %.01722, i64 56
  %bcmp = tail call i32 @bcmp(ptr noundef nonnull dereferenceable(20) %1, ptr noundef nonnull dereferenceable(20) %8, i64 20)
  %9 = icmp eq i32 %bcmp, 0
  %spec.select = select i1 %9, ptr %.01722, ptr null
  %10 = getelementptr inbounds nuw i8, ptr %.01722, i64 104
  %.017 = load ptr, ptr %10, align 8, !tbaa !177
  %11 = icmp ne ptr %.017, null
  %12 = icmp eq ptr %spec.select, null
  %13 = and i1 %12, %11
  br i1 %13, label %.lr.ph, label %._crit_edge, !llvm.loop !179

._crit_edge:                                      ; preds = %.lr.ph, %.preheader
  %.1.lcssa = phi ptr [ null, %.preheader ], [ %spec.select, %.lr.ph ]
  %indvars.iv.next = add nuw nsw i64 %indvars.iv, 1
  %14 = icmp samesign ult i64 %indvars.iv, 10
  %15 = icmp eq ptr %.1.lcssa, null
  %16 = and i1 %15, %14
  br i1 %16, label %.preheader, label %17, !llvm.loop !180

17:                                               ; preds = %._crit_edge
  %18 = tail call i32 @wc_UnLockMutex(ptr noundef nonnull %5) #22
  br label %19

19:                                               ; preds = %4, %2, %17
  %.019 = phi ptr [ %.1.lcssa, %17 ], [ null, %2 ], [ null, %4 ]
  ret ptr %.019
}